target datalayout = "e-m:e-p270:32:32-p271:32:32-p272:64:64-i64:64-i128:128-f80:128-n8:16:32:64-S128"
target triple = "x86_64-unknown-linux-gnu"

%struct.DSA_SIG_st = type { ptr, ptr }

; Function Attrs: nounwind uwtable
define hidden void @DSA_SIG_free(ptr noundef %sig) #0 {
entry:
  %sig.addr = alloca ptr, align 8
  store ptr %sig, ptr %sig.addr, align 8
  %0 = load ptr, ptr %sig.addr, align 8
  %tobool = icmp ne ptr %0, null
  br i1 %tobool, label %if.end, label %if.then

if.then:                                          ; preds = %entry
  br label %return

if.end:                                           ; preds = %entry
  %1 = load ptr, ptr %sig.addr, align 8
  %r = getelementptr inbounds %struct.DSA_SIG_st, ptr %1, i32 0, i32 0
  %2 = load ptr, ptr %r, align 8
  call void @BN_free(ptr noundef %2)
  %3 = load ptr, ptr %sig.addr, align 8
  %s = getelementptr inbounds %struct.DSA_SIG_st, ptr %3, i32 0, i32 1
  %4 = load ptr, ptr %s, align 8
  call void @BN_free(ptr noundef %4)
  %5 = load ptr, ptr %sig.addr, align 8
  call void @free(ptr noundef %5) #8
  br label %return

return:                                           ; preds = %if.end, %if.then
  ret void
}

; Function Attrs: nounwind uwtable
define hidden i32 @DSA_sign(i32 noundef %type, ptr noundef %digest, i64 noundef %digest_len, ptr noundef %out_sig, ptr noundef %out_siglen, ptr noundef %dsa) #0 {
entry:
  %retval = alloca i32, align 4
  %type.addr = alloca i32, align 4
  %digest.addr = alloca ptr, align 8
  %digest_len.addr = alloca i64, align 8
  %out_sig.addr = alloca ptr, align 8
  %out_siglen.addr = alloca ptr, align 8
  %dsa.addr = alloca ptr, align 8
  %s = alloca ptr, align 8
  store i32 %type, ptr %type.addr, align 4
  store ptr %digest, ptr %digest.addr, align 8
  store i64 %digest_len, ptr %digest_len.addr, align 8
  store ptr %out_sig, ptr %out_sig.addr, align 8
  store ptr %out_siglen, ptr %out_siglen.addr, align 8
  store ptr %dsa, ptr %dsa.addr, align 8
  %0 = load ptr, ptr %digest.addr, align 8
  %1 = load i64, ptr %digest_len.addr, align 8
  %2 = load ptr, ptr %dsa.addr, align 8
  %call = call ptr @DSA_do_sign(ptr noundef %0, i64 noundef %1, ptr noundef %2)
  store ptr %call, ptr %s, align 8
  %3 = load ptr, ptr %s, align 8
  %cmp = icmp eq ptr %3, null
  br i1 %cmp, label %if.then, label %if.end

if.then:                                          ; preds = %entry
  %4 = load ptr, ptr %out_siglen.addr, align 8
  store i32 0, ptr %4, align 4
  store i32 0, ptr %retval, align 4
  br label %return

if.end:                                           ; preds = %entry
  %5 = load ptr, ptr %s, align 8
  %call1 = call i32 @i2d_DSA_SIG(ptr noundef %5, ptr noundef %out_sig.addr)
  %6 = load ptr, ptr %out_siglen.addr, align 8
  store i32 %call1, ptr %6, align 4
  %7 = load ptr, ptr %s, align 8
  call void @DSA_SIG_free(ptr noundef %7)
  store i32 1, ptr %retval, align 4
  br label %return

return:                                           ; preds = %if.end, %if.then
  %8 = load i32, ptr %retval, align 4
  ret i32 %8
}