; Function Attrs: nounwind uwtable
define hidden range(i32 0, 2) i32 @DSA_sign(i32 noundef %type, ptr noundef %digest, i64 noundef %digest_len, ptr noundef %out_sig, ptr noundef writeonly captures(none) initializes((0, 4)) %out_siglen, ptr noundef %dsa) local_unnamed_addr #0 {
entry:
  %out_sig.addr = alloca ptr, align 8
  store ptr %out_sig, ptr %out_sig.addr, align 8
  %call = tail call ptr @DSA_do_sign(ptr noundef %digest, i64 noundef %digest_len, ptr noundef %dsa)
  %cmp = icmp eq ptr %call, null
  br i1 %cmp, label %if.then, label %DSA_SIG_free.exit

if.then:                                          ; preds = %entry
  store i32 0, ptr %out_siglen, align 4
  br label %return

DSA_SIG_free.exit:                                ; preds = %entry
  %call1 = call i32 @i2d_DSA_SIG(ptr noundef nonnull %call, ptr noundef nonnull %out_sig.addr) #8
  store i32 %call1, ptr %out_siglen, align 4
  %0 = load ptr, ptr %call, align 8
  call void @BN_free(ptr noundef %0) #8
  %s.i = getelementptr inbounds nuw i8, ptr %call, i64 8
  %1 = load ptr, ptr %s.i, align 8
  call void @BN_free(ptr noundef %1) #8
  call void @free(ptr noundef nonnull %call) #8
  br label %return

return:                                           ; preds = %DSA_SIG_free.exit, %if.then
  %retval.0 = phi i32 [ 0, %if.then ], [ 1, %DSA_SIG_free.exit ]
  ret i32 %retval.0
}